target datalayout = "e-m:e-p270:32:32-p271:32:32-p272:64:64-i64:64-i128:128-f80:128-n8:16:32:64-S128"
target triple = "x86_64-pc-linux-gnu"

%struct.AVCodecContext = type { ptr, i32, i32, ptr, i32, i32, ptr, ptr, ptr, i64, i32, i32, ptr, i32, %struct.AVRational, %struct.AVRational, %struct.AVRational, i32, i32, i32, i32, i32, %struct.AVRational, i32, i32, i32, i32, i32, i32, i32, i32, i32, i32, i32, ptr, ptr, i32, float, float, float, float, float, float, float, float, float, i32, i32, i32, i32, i32, i32, i32, i32, i32, i32, i32, i32, ptr, ptr, ptr, i32, i32, i32, i32, i32, i32, i32, i32, i32, i32, %struct.AVChannelLayout, i32, i32, i32, i32, i32, i32, i32, i32, ptr, i32, i32, i32, float, float, i32, i32, i32, i32, i32, ptr, i64, i64, float, float, i32, i32, ptr, ptr, i32, i32, i32, i32, i32, ptr, ptr, ptr, ptr, i32, i32, [8 x i64], i32, i32, i32, i32, i32, i32, i32, ptr, ptr, i32, i32, i32, i32, i32, i32, i32, i32, i32, i32, ptr, ptr, i32, i32, ptr, ptr, ptr, ptr, i32, i32, i64, i32, i32, i64, ptr, i64, ptr, i32, ptr, i32 }
%struct.AVRational = type { i32, i32 }
%struct.AVChannelLayout = type { i32, i32, %union.anon.1, ptr }
%union.anon.1 = type { i64 }
%struct.LJpegEncContext = type { ptr, [4 x i32], [4 x i32], [12 x i16], [12 x i16], [12 x i8], [12 x i8], ptr, i32 }

@ff_mjpeg_bits_dc_luminance = external hidden constant [0 x i8], align 1
@ff_mjpeg_val_dc = external hidden constant [0 x i8], align 1
@ff_mjpeg_bits_dc_chrominance = external hidden constant [0 x i8], align 1

; Function Attrs: cold nounwind optsize uwtable
define internal i32 @ljpeg_encode_init(ptr noundef %0) #0 {
  %2 = alloca i32, align 4
  %3 = alloca ptr, align 8
  %4 = alloca i32, align 4
  %5 = alloca ptr, align 8
  %6 = alloca i32, align 4
  store ptr %0, ptr %3, align 8, !tbaa !4
  call void @llvm.lifetime.start.p0(i64 4, ptr %4) #6
  %7 = load ptr, ptr %3, align 8, !tbaa !4
  %8 = call i32 @ff_mjpeg_encode_check_pix_fmt(ptr noundef %7)
  store i32 %8, ptr %4, align 4, !tbaa !9
  call void @llvm.lifetime.start.p0(i64 8, ptr %5) #6
  %9 = load ptr, ptr %3, align 8, !tbaa !4
  %10 = getelementptr inbounds nuw %struct.AVCodecContext, ptr %9, i32 0, i32 6
  %11 = load ptr, ptr %10, align 8, !tbaa !11
  store ptr %11, ptr %5, align 8, !tbaa !30
  %12 = load i32, ptr %4, align 4, !tbaa !9
  %13 = icmp slt i32 %12, 0
  br i1 %13, label %14, label %16

14:                                               ; preds = %1
  %15 = load i32, ptr %4, align 4, !tbaa !9
  store i32 %15, ptr %2, align 4
  store i32 1, ptr %6, align 4
  br label %50

16:                                               ; preds = %1
  %17 = load ptr, ptr %3, align 8, !tbaa !4
  %18 = getelementptr inbounds nuw %struct.AVCodecContext, ptr %17, i32 0, i32 18
  %19 = load i32, ptr %18, align 8, !tbaa !32
  %20 = add nsw i32 %19, 1
  %21 = sext i32 %20 to i64
  %22 = call ptr @av_malloc_array(i64 noundef %21, i64 noundef 8)
  %23 = load ptr, ptr %5, align 8, !tbaa !30
  %24 = getelementptr inbounds nuw %struct.LJpegEncContext, ptr %23, i32 0, i32 7
  store ptr %22, ptr %24, align 8, !tbaa !33
  %25 = load ptr, ptr %5, align 8, !tbaa !30
  %26 = getelementptr inbounds nuw %struct.LJpegEncContext, ptr %25, i32 0, i32 7
  %27 = load ptr, ptr %26, align 8, !tbaa !33
  %28 = icmp ne ptr %27, null
  br i1 %28, label %30, label %29

29:                                               ; preds = %16
  store i32 -12, ptr %2, align 4
  store i32 1, ptr %6, align 4
  br label %50

30:                                               ; preds = %16
  %31 = load ptr, ptr %3, align 8, !tbaa !4
  %32 = load ptr, ptr %5, align 8, !tbaa !30
  %33 = getelementptr inbounds nuw %struct.LJpegEncContext, ptr %32, i32 0, i32 2
  %34 = getelementptr inbounds [4 x i32], ptr %33, i64 0, i64 0
  %35 = load ptr, ptr %5, align 8, !tbaa !30
  %36 = getelementptr inbounds nuw %struct.LJpegEncContext, ptr %35, i32 0, i32 1
  %37 = getelementptr inbounds [4 x i32], ptr %36, i64 0, i64 0
  call void @ff_mjpeg_init_hvsample(ptr noundef %31, ptr noundef %34, ptr noundef %37)
  %38 = load ptr, ptr %5, align 8, !tbaa !30
  %39 = getelementptr inbounds nuw %struct.LJpegEncContext, ptr %38, i32 0, i32 5
  %40 = getelementptr inbounds [12 x i8], ptr %39, i64 0, i64 0
  %41 = load ptr, ptr %5, align 8, !tbaa !30
  %42 = getelementptr inbounds nuw %struct.LJpegEncContext, ptr %41, i32 0, i32 3
  %43 = getelementptr inbounds [12 x i16], ptr %42, i64 0, i64 0
  call void @ff_mjpeg_build_huffman_codes(ptr noundef %40, ptr noundef %43, ptr noundef @ff_mjpeg_bits_dc_luminance, ptr noundef @ff_mjpeg_val_dc)
  %44 = load ptr, ptr %5, align 8, !tbaa !30
  %45 = getelementptr inbounds nuw %struct.LJpegEncContext, ptr %44, i32 0, i32 6
  %46 = getelementptr inbounds [12 x i8], ptr %45, i64 0, i64 0
  %47 = load ptr, ptr %5, align 8, !tbaa !30
  %48 = getelementptr inbounds nuw %struct.LJpegEncContext, ptr %47, i32 0, i32 4
  %49 = getelementptr inbounds [12 x i16], ptr %48, i64 0, i64 0
  call void @ff_mjpeg_build_huffman_codes(ptr noundef %46, ptr noundef %49, ptr noundef @ff_mjpeg_bits_dc_chrominance, ptr noundef @ff_mjpeg_val_dc)
  store i32 0, ptr %2, align 4
  store i32 1, ptr %6, align 4
  br label %50

50:                                               ; preds = %30, %29, %14
  call void @llvm.lifetime.end.p0(i64 8, ptr %5) #6
  call void @llvm.lifetime.end.p0(i64 4, ptr %4) #6
  %51 = load i32, ptr %2, align 4
  ret i32 %51
}