; Function Attrs: cold nounwind optsize uwtable
define internal range(i32 -2147483648, 1) i32 @ljpeg_encode_init(ptr noundef %0) #0 {
  %2 = tail call i32 @ff_mjpeg_encode_check_pix_fmt(ptr noundef %0) #6
  %3 = getelementptr inbounds nuw i8, ptr %0, i64 32
  %4 = load ptr, ptr %3, align 8, !tbaa !4
  %5 = icmp slt i32 %2, 0
  br i1 %5, label %20, label %6

6:                                                ; preds = %1
  %7 = getelementptr inbounds nuw i8, ptr %0, i64 112
  %8 = load i32, ptr %7, align 8, !tbaa !27
  %9 = add nsw i32 %8, 1
  %10 = sext i32 %9 to i64
  %11 = tail call ptr @av_malloc_array(i64 noundef %10, i64 noundef 8) #6
  %12 = getelementptr inbounds nuw i8, ptr %4, i64 112
  store ptr %11, ptr %12, align 8, !tbaa !28
  %.not = icmp eq ptr %11, null
  br i1 %.not, label %20, label %13

13:                                               ; preds = %6
  %14 = getelementptr inbounds nuw i8, ptr %4, i64 24
  %15 = getelementptr inbounds nuw i8, ptr %4, i64 8
  tail call void @ff_mjpeg_init_hvsample(ptr noundef nonnull %0, ptr noundef nonnull %14, ptr noundef nonnull %15) #6
  %16 = getelementptr inbounds nuw i8, ptr %4, i64 88
  %17 = getelementptr inbounds nuw i8, ptr %4, i64 40
  tail call void @ff_mjpeg_build_huffman_codes(ptr noundef nonnull %16, ptr noundef nonnull %17, ptr noundef nonnull @ff_mjpeg_bits_dc_luminance, ptr noundef nonnull @ff_mjpeg_val_dc) #6
  %18 = getelementptr inbounds nuw i8, ptr %4, i64 100
  %19 = getelementptr inbounds nuw i8, ptr %4, i64 64
  tail call void @ff_mjpeg_build_huffman_codes(ptr noundef nonnull %18, ptr noundef nonnull %19, ptr noundef nonnull @ff_mjpeg_bits_dc_chrominance, ptr noundef nonnull @ff_mjpeg_val_dc) #6
  br label %20

20:                                               ; preds = %6, %1, %13
  %.0 = phi i32 [ 0, %13 ], [ %2, %1 ], [ -12, %6 ]
  ret i32 %.0
}